; Function Attrs: mustprogress uwtable
define dso_local noundef i32 @_ZNK3net18SourceAddressToken30RequiredFieldsByteSizeFallbackEv(ptr nocapture noundef nonnull readonly align 8 dereferenceable(56) %this) local_unnamed_addr #1 align 2 {
entry:
  %_has_bits_.i = getelementptr inbounds i8, ptr %this, i64 24
  %0 = load i32, ptr %_has_bits_.i, align 8
  %and.i = and i32 %0, 1
  %cmp.i.not = icmp eq i32 %and.i, 0
  br i1 %cmp.i.not, label %if.end, label %if.then

if.then:                                          ; preds = %entry
  %ip_.i = getelementptr inbounds i8, ptr %this, i64 32
  %1 = load ptr, ptr %ip_.i, align 8
  %call.i = tail call noundef i64 @_ZNKSt7__cxx1112basic_stringIcSt11char_traitsIcESaIcEE4sizeEv(ptr noundef nonnull align 8 dereferenceable(32) %1) #14
  %conv.i = trunc i64 %call.i to i32
  %cmp.i.i = icmp ult i32 %conv.i, 128
  br i1 %cmp.i.i, label %_ZN6google8protobuf8internal14WireFormatLite9BytesSizeERKNSt7__cxx1112basic_stringIcSt11char_traitsIcESaIcEEE.exit, label %if.else.i.i

if.else.i.i:                                      ; preds = %if.then
  %call.i.i = tail call noundef i32 @_ZN6google8protobuf2io17CodedOutputStream20VarintSize32FallbackEj(i32 noundef %conv.i)
  %2 = add i32 %call.i.i, 1
  br label %_ZN6google8protobuf8internal14WireFormatLite9BytesSizeERKNSt7__cxx1112basic_stringIcSt11char_traitsIcESaIcEEE.exit

_ZN6google8protobuf8internal14WireFormatLite9BytesSizeERKNSt7__cxx1112basic_stringIcSt11char_traitsIcESaIcEEE.exit: ; preds = %if.then, %if.else.i.i
  %retval.0.i.i = phi i32 [ %2, %if.else.i.i ], [ 2, %if.then ]
  %call3.i = tail call noundef i64 @_ZNKSt7__cxx1112basic_stringIcSt11char_traitsIcESaIcEE4sizeEv(ptr noundef nonnull align 8 dereferenceable(32) %1) #14
  %3 = trunc i64 %call3.i to i32
  %add = add i32 %retval.0.i.i, %3
  %.pre = load i32, ptr %_has_bits_.i, align 8
  br label %if.end

if.end:                                           ; preds = %_ZN6google8protobuf8internal14WireFormatLite9BytesSizeERKNSt7__cxx1112basic_stringIcSt11char_traitsIcESaIcEEE.exit, %entry
  %4 = phi i32 [ %.pre, %_ZN6google8protobuf8internal14WireFormatLite9BytesSizeERKNSt7__cxx1112basic_stringIcSt11char_traitsIcESaIcEEE.exit ], [ %0, %entry ]
  %total_size.0 = phi i32 [ %add, %_ZN6google8protobuf8internal14WireFormatLite9BytesSizeERKNSt7__cxx1112basic_stringIcSt11char_traitsIcESaIcEEE.exit ], [ 0, %entry ]
  %and.i4 = and i32 %4, 2
  %cmp.i5.not = icmp eq i32 %and.i4, 0
  br i1 %cmp.i5.not, label %if.end11, label %if.then6

if.then6:                                         ; preds = %if.end
  %timestamp_.i = getelementptr inbounds i8, ptr %this, i64 40
  %5 = load i64, ptr %timestamp_.i, align 8
  %call.i6 = tail call noundef i32 @_ZN6google8protobuf2io17CodedOutputStream12VarintSize64Em(i64 noundef %5)
  %add9 = add i32 %total_size.0, 1
  %add10 = add i32 %add9, %call.i6
  br label %if.end11

if.end11:                                         ; preds = %if.then6, %if.end
  %total_size.1 = phi i32 [ %add10, %if.then6 ], [ %total_size.0, %if.end ]
  ret i32 %total_size.1
}